(dp0
S'IW_MKF_EDK'
p1
NsS'IW_PLATFORM_LINUX'
p2
NsS'IW_ASSERTION_CHANNEL_CAMERAFLASH'
p3
S'1'
p4
sS'IW_SDK'
p5
NsS'IW_USE_ASSERTIONS'
p6
NsS'IW_TRACE_CHANNEL_CAMERAFLASH_VERBOSE'
p7
S'2'
p8
sS'IW_USE_TRACING'
p9
NsS'S3E_ANDROID'
p10
NsS'S3E_BUILD_EXT'
p11
NsS'ANDROID'
p12
NsS'IW_TRACE_CHANNEL_CAMERAFLASH'
p13
g4
sS'S3E_EXT_CAMERAFLASH'
p14
NsS'I3D_OS_LINUX'
p15
NsS'I3D_PLATFORM_LINUX'
p16
NsS'IW_DEBUG'
p17
NsS'IW_MKF_CAMERAFLASH_BUILD'
p18
NsS'I3D_ARCH_ARM'
p19
Ns.